target datalayout = "e-m:e-p270:32:32-p271:32:32-p272:64:64-i64:64-i128:128-f80:128-n8:16:32:64-S128"
target triple = "x86_64-pc-linux-gnu"

%struct.ThreadNode = type { ptr, i16, i32, ptr, i32, i32, %struct.StepRequest, %struct.InvokeRequest, ptr, %struct.CoLocatedEventInfo_, ptr, ptr, i64, ptr }
%struct.StepRequest = type { i32, i32, i8, i8, i8, i32, i32, ptr, ptr, i32, ptr, ptr, ptr, ptr }
%struct.InvokeRequest = type { i8, i8, i8, i8, i32, i8, i8, ptr, ptr, ptr, ptr, i32, ptr, %union.jvalue, ptr }
%union.jvalue = type { i64 }
%struct.CoLocatedEventInfo_ = type { i32, ptr, ptr, i64 }

@threadLock = internal global ptr null, align 8

; Function Attrs: nounwind uwtable
define hidden i64 @threadControl_getFrameGeneration(ptr noundef %0) #0 {
  %2 = alloca ptr, align 8
  %3 = alloca i64, align 8
  %4 = alloca ptr, align 8
  store ptr %0, ptr %2, align 8
  store i64 -1, ptr %3, align 8
  %5 = load ptr, ptr @threadLock, align 8
  call void @debugMonitorEnter(ptr noundef %5)
  %6 = load ptr, ptr %2, align 8
  %7 = call ptr @findThread(ptr noundef null, ptr noundef %6)
  store ptr %7, ptr %4, align 8
  %8 = load ptr, ptr %4, align 8
  %9 = icmp ne ptr %8, null
  br i1 %9, label %10, label %14

10:                                               ; preds = %1
  %11 = load ptr, ptr %4, align 8
  %12 = getelementptr inbounds %struct.ThreadNode, ptr %11, i32 0, i32 12
  %13 = load i64, ptr %12, align 8
  store i64 %13, ptr %3, align 8
  br label %14

14:                                               ; preds = %10, %1
  %15 = load ptr, ptr @threadLock, align 8
  call void @debugMonitorExit(ptr noundef %15)
  %16 = load i64, ptr %3, align 8
  ret i64 %16
}