; Function Attrs: nounwind uwtable
define hidden i64 @threadControl_getFrameGeneration(ptr noundef %0) local_unnamed_addr #0 {
  %2 = load ptr, ptr @threadLock, align 8
  tail call void @debugMonitorEnter(ptr noundef %2) #6
  %3 = tail call fastcc ptr @findThread(ptr noundef null, ptr noundef %0)
  %.not = icmp eq ptr %3, null
  br i1 %.not, label %7, label %4

4:                                                ; preds = %1
  %5 = getelementptr inbounds i8, ptr %3, i64 248
  %6 = load i64, ptr %5, align 8
  br label %7

7:                                                ; preds = %4, %1
  %.0 = phi i64 [ %6, %4 ], [ -1, %1 ]
  %8 = load ptr, ptr @threadLock, align 8
  tail call void @debugMonitorExit(ptr noundef %8) #6
  ret i64 %.0
}